target datalayout = "e-m:e-p270:32:32-p271:32:32-p272:64:64-i64:64-i128:128-f80:128-n8:16:32:64-S128"
target triple = "x86_64-pc-linux-gnu"

%"struct.icu_77::LocaleDistanceData" = type { ptr, ptr, ptr, ptr, i32, ptr }
%"struct.icu_77::LSR" = type <{ ptr, ptr, ptr, ptr, i32, i32, i32, [4 x i8] }>

; Function Attrs: inlinehint mustprogress nounwind uwtable
define linkonce_odr void @_ZN6icu_773LSRD2Ev(ptr noundef nonnull align 8 dereferenceable(48) %0) unnamed_addr #2 comdat align 2 personality ptr @__gxx_personality_v0 {
  %2 = alloca ptr, align 8
  store ptr %0, ptr %2, align 8, !tbaa !35
  %3 = load ptr, ptr %2, align 8
  %4 = getelementptr inbounds nuw %"struct.icu_77::LSR", ptr %3, i32 0, i32 3
  %5 = load ptr, ptr %4, align 8, !tbaa !36
  %6 = icmp ne ptr %5, null
  br i1 %6, label %7, label %9

7:                                                ; preds = %1
  invoke void @_ZN6icu_773LSR11deleteOwnedEv(ptr noundef nonnull align 8 dereferenceable(48) %3)
          to label %8 unwind label %10

8:                                                ; preds = %7
  br label %9

9:                                                ; preds = %8, %1
  ret void

10:                                               ; preds = %7
  %11 = landingpad { ptr, i32 }
          catch ptr null
  %12 = extractvalue { ptr, i32 } %11, 0
  call void @__clang_call_terminate(ptr %12) #15
  unreachable
}

; Function Attrs: mustprogress nounwind uwtable
define void @_ZN6icu_7718LocaleDistanceDataD2Ev(ptr noundef nonnull align 8 dereferenceable(48) %0) unnamed_addr #0 align 2 personality ptr @__gxx_personality_v0 {
  %2 = alloca ptr, align 8
  store ptr %0, ptr %2, align 8, !tbaa !23
  %3 = load ptr, ptr %2, align 8
  %4 = getelementptr inbounds nuw %"struct.icu_77::LocaleDistanceData", ptr %3, i32 0, i32 2
  %5 = load ptr, ptr %4, align 8, !tbaa !31
  invoke void @uprv_free_77(ptr noundef %5)
          to label %6 unwind label %21

6:                                                ; preds = %1
  %7 = getelementptr inbounds nuw %"struct.icu_77::LocaleDistanceData", ptr %3, i32 0, i32 3
  %8 = load ptr, ptr %7, align 8, !tbaa !32
  %9 = icmp eq ptr %8, null
  br i1 %9, label %20, label %10

10:                                               ; preds = %6
  %11 = getelementptr inbounds i8, ptr %8, i64 -8
  %12 = load i64, ptr %11, align 8
  %13 = getelementptr inbounds %"struct.icu_77::LSR", ptr %8, i64 %12
  %14 = icmp eq ptr %8, %13
  br i1 %14, label %19, label %15

15:                                               ; preds = %15, %10
  %16 = phi ptr [ %13, %10 ], [ %17, %15 ]
  %17 = getelementptr inbounds %"struct.icu_77::LSR", ptr %16, i64 -1
  call void @_ZN6icu_773LSRD2Ev(ptr noundef nonnull align 8 dereferenceable(48) %17) #13
  %18 = icmp eq ptr %17, %8
  br i1 %18, label %19, label %15

19:                                               ; preds = %15, %10
  call void @_ZN6icu_777UMemorydaEPv(ptr noundef %11) #13
  br label %20

20:                                               ; preds = %19, %6
  ret void

21:                                               ; preds = %1
  %22 = landingpad { ptr, i32 }
          catch ptr null
  %23 = extractvalue { ptr, i32 } %22, 0
  call void @__clang_call_terminate(ptr %23) #15
  unreachable
}