; Function Attrs: mustprogress nounwind uwtable
define void @_ZN6icu_7718LocaleDistanceDataD2Ev(ptr noundef nonnull readonly align 8 captures(none) dereferenceable(48) %0) unnamed_addr #0 align 2 personality ptr @__gxx_personality_v0 {
  %2 = getelementptr inbounds nuw i8, ptr %0, i64 16
  %3 = load ptr, ptr %2, align 8, !tbaa !22
  invoke void @uprv_free_77(ptr noundef %3)
          to label %4 unwind label %23

4:                                                ; preds = %1
  %5 = getelementptr inbounds nuw i8, ptr %0, i64 24
  %6 = load ptr, ptr %5, align 8, !tbaa !23
  %7 = icmp eq ptr %6, null
  br i1 %7, label %22, label %8

8:                                                ; preds = %4
  %9 = getelementptr inbounds i8, ptr %6, i64 -8
  %10 = load i64, ptr %9, align 8
  %11 = icmp eq i64 %10, 0
  br i1 %11, label %.loopexit, label %.preheader.preheader

.preheader.preheader:                             ; preds = %8
  %12 = getelementptr inbounds %"struct.icu_77::LSR", ptr %6, i64 %10
  br label %.preheader

.preheader:                                       ; preds = %.preheader.preheader, %_ZN6icu_773LSRD2Ev.exit
  %13 = phi ptr [ %14, %_ZN6icu_773LSRD2Ev.exit ], [ %12, %.preheader.preheader ]
  %14 = getelementptr inbounds i8, ptr %13, i64 -48
  %15 = getelementptr inbounds i8, ptr %13, i64 -24
  %16 = load ptr, ptr %15, align 8, !tbaa !26
  %.not.i = icmp eq ptr %16, null
  br i1 %.not.i, label %_ZN6icu_773LSRD2Ev.exit, label %17

17:                                               ; preds = %.preheader
  invoke void @_ZN6icu_773LSR11deleteOwnedEv(ptr noundef nonnull align 8 dereferenceable(48) %14)
          to label %_ZN6icu_773LSRD2Ev.exit unwind label %18

18:                                               ; preds = %17
  %19 = landingpad { ptr, i32 }
          catch ptr null
  %20 = extractvalue { ptr, i32 } %19, 0
  tail call void @__clang_call_terminate(ptr %20) #19
  unreachable

_ZN6icu_773LSRD2Ev.exit:                          ; preds = %.preheader, %17
  %21 = icmp eq ptr %14, %6
  br i1 %21, label %.loopexit, label %.preheader

.loopexit:                                        ; preds = %_ZN6icu_773LSRD2Ev.exit, %8
  tail call void @_ZN6icu_777UMemorydaEPv(ptr noundef nonnull %9) #17
  br label %22

22:                                               ; preds = %.loopexit, %4
  ret void

23:                                               ; preds = %1
  %24 = landingpad { ptr, i32 }
          catch ptr null
  %25 = extractvalue { ptr, i32 } %24, 0
  tail call void @__clang_call_terminate(ptr %25) #19
  unreachable
}